; Function Attrs: null_pointer_is_valid sspstrong uwtable
define internal i32 @srvsvc_dissect_NetShareDel_request(ptr noundef %0, i32 noundef %1, ptr noundef %2, ptr noundef %3, ptr noundef initializes((72, 80)) %4, ptr noundef %5) #0 {
  %7 = alloca ptr, align 8
  %8 = getelementptr inbounds nuw i8, ptr %4, i64 72
  store ptr @.str.1229, ptr %8, align 8
  %9 = load i32, ptr @hf_srvsvc_srvsvc_NetShareDel_server_unc, align 4
  %10 = tail call i32 @dissect_ndr_toplevel_pointer(ptr noundef %0, i32 noundef %1, ptr noundef %2, ptr noundef %3, ptr noundef %4, ptr noundef %5, ptr noundef nonnull @srvsvc_dissect_element_NetShareDel_server_unc_, i32 noundef 2, ptr noundef nonnull @.str.1266, i32 noundef %9)
  %11 = tail call i32 @dissect_deferred_pointers(ptr noundef %2, ptr noundef %0, i32 noundef %10, ptr noundef %4, ptr noundef %5)
  call void @llvm.lifetime.start.p0(i64 8, ptr nonnull %7) #4
  %12 = load i32, ptr @hf_srvsvc_srvsvc_NetShareDel_share_name, align 4
  %13 = call i32 @dissect_ndr_cvstring(ptr noundef %0, i32 noundef %11, ptr noundef %2, ptr noundef %3, ptr noundef %4, ptr noundef %5, i32 noundef 2, i32 noundef %12, i1 noundef zeroext false, ptr noundef nonnull %7)
  %14 = load ptr, ptr %7, align 8
  call void (ptr, ptr, ...) @proto_item_append_text(ptr noundef %3, ptr noundef nonnull @.str.1102, ptr noundef %14)
  call void @llvm.lifetime.end.p0(i64 8, ptr nonnull %7) #4
  %15 = call i32 @dissect_deferred_pointers(ptr noundef %2, ptr noundef %0, i32 noundef %13, ptr noundef %4, ptr noundef %5)
  %16 = load i32, ptr @hf_srvsvc_srvsvc_NetShareDel_reserved, align 4
  %17 = call i32 @PIDL_dissect_uint32(ptr noundef %0, i32 noundef %15, ptr noundef %2, ptr noundef %3, ptr noundef %4, ptr noundef %5, i32 noundef %16, i32 noundef 0)
  %18 = call i32 @dissect_deferred_pointers(ptr noundef %2, ptr noundef %0, i32 noundef %17, ptr noundef %4, ptr noundef %5)
  ret i32 %18
}